ccopy_reg
_reconstructor
p0
(csklearn.linear_model.perceptron
Perceptron
p1
c__builtin__
object
p2
Ntp3
Rp4
(dp5
S't_'
p6
F317241.0
sS'n_jobs'
p7
I1
sS'shuffle'
p8
I01
sS'verbose'
p9
I0
sS'classes_'
p10
cnumpy.core.multiarray
_reconstruct
p11
(cnumpy
ndarray
p12
(I0
tp13
S'b'
p14
tp15
Rp16
(I1
(L2L
tp17
cnumpy
dtype
p18
(S'i4'
p19
I0
I1
tp20
Rp21
(I3
S'<'
p22
NNNI-1
I-1
I0
tp23
bI00
S'\x00\x00\x00\x00\x01\x00\x00\x00'
p24
tp25
bsS'_tol'
p26
NsS'class_weight'
p27
NsS'fit_intercept'
p28
I01
sS'n_iter_'
p29
I40
sS'penalty'
p30
NsS'random_state'
p31
I0
sS'_sklearn_version'
p32
S'0.19.1'
p33
sS'tol'
p34
NsS'C'
p35
F1.0
sS'n_iter'
p36
NsS'epsilon'
p37
F0.1
sS'learning_rate'
p38
S'constant'
p39
sS'max_iter'
p40
I40
sS'coef_'
p41
g11
(g12
(I0
tp42
g14
tp43
Rp44
(I1
(L1L
L4L
tp45
g18
(S'f8'
p46
I0
I1
tp47
Rp48
(I3
S'<'
p49
NNNI-1
I-1
I0
tp50
bI00
S'\x00\x00\x00\x00\x00\x00.\xc0\xbf\x04T\xe9\x05`Y\xc0\x00\x00\x00\x00\x00\x00\x00\x00\x07\xcc\x8a-\x1brD\xc0'
p51
tp52
bsS'alpha'
p53
F0.0001
sS'intercept_'
p54
g11
(g12
(I0
tp55
g14
tp56
Rp57
(I1
(L1L
tp58
g48
I00
S'\x00\x00\x00\x00\x00\xc0[@'
p59
tp60
bsS'_max_iter'
p61
I40
sS'_expanded_class_weight'
p62
g11
(g12
(I0
tp63
g14
tp64
Rp65
(I1
(L2L
tp66
g48
I00
S'\x00\x00\x00\x00\x00\x00\xf0?\x00\x00\x00\x00\x00\x00\xf0?'
p67
tp68
bsS'warm_start'
p69
I00
sS'loss'
p70
S'perceptron'
p71
sS'eta0'
p72
F1.0
sS'l1_ratio'
p73
I0
sS'average'
p74
I00
sS'power_t'
p75
F0.5
sS'loss_function_'
p76
csklearn.linear_model.sgd_fast
Hinge
p77
(F0.0
tp78
Rp79
sb.